; Function Attrs: nounwind uwtable
define noundef ptr @zend_ast_list_add(ptr noundef %0, ptr noundef %1) local_unnamed_addr #0 {
  %3 = getelementptr inbounds i8, ptr %0, i64 8
  %4 = load i32, ptr %3, align 8
  %5 = icmp ugt i32 %4, 3
  %6 = tail call i32 @llvm.ctpop.i32(i32 %4), !range !4
  %7 = icmp ult i32 %6, 2
  %or.cond = select i1 %5, i1 %7, i1 false
  br i1 %or.cond, label %8, label %36

8:                                                ; preds = %2
  %9 = zext i32 %4 to i64
  %10 = shl nuw nsw i64 %9, 3
  %11 = add nuw nsw i64 %10, 16
  %12 = shl i32 %4, 1
  %13 = zext i32 %12 to i64
  %14 = shl nuw nsw i64 %13, 3
  %15 = load ptr, ptr getelementptr inbounds (%struct._zend_compiler_globals, ptr @compiler_globals, i64 0, i32 32), align 8
  %16 = load ptr, ptr %15, align 8
  %17 = add nuw nsw i64 %14, 23
  %18 = and i64 %17, 68719476720
  %19 = getelementptr inbounds i8, ptr %15, i64 8
  %20 = load ptr, ptr %19, align 8
  %21 = ptrtoint ptr %20 to i64
  %22 = ptrtoint ptr %16 to i64
  %23 = sub i64 %21, %22
  %.not.i.i = icmp ugt i64 %18, %23
  br i1 %.not.i.i, label %26, label %24

24:                                               ; preds = %8
  %25 = getelementptr inbounds i8, ptr %16, i64 %18
  store ptr %25, ptr %15, align 8
  br label %zend_ast_realloc.exit

26:                                               ; preds = %8
  %27 = add nuw nsw i64 %18, 24
  %28 = ptrtoint ptr %15 to i64
  %29 = sub i64 %21, %28
  %..i.i = tail call i64 @llvm.umax.i64(i64 %27, i64 %29)
  %30 = tail call noalias ptr @_emalloc(i64 noundef %..i.i) #13
  %31 = getelementptr inbounds i8, ptr %30, i64 24
  %32 = getelementptr inbounds i8, ptr %31, i64 %18
  store ptr %32, ptr %30, align 8
  %33 = getelementptr inbounds i8, ptr %30, i64 %..i.i
  %34 = getelementptr inbounds i8, ptr %30, i64 8
  store ptr %33, ptr %34, align 8
  %35 = getelementptr inbounds i8, ptr %30, i64 16
  store ptr %15, ptr %35, align 8
  store ptr %30, ptr getelementptr inbounds (%struct._zend_compiler_globals, ptr @compiler_globals, i64 0, i32 32), align 8
  br label %zend_ast_realloc.exit

zend_ast_realloc.exit:                            ; preds = %24, %26
  %.0.i.i = phi ptr [ %16, %24 ], [ %31, %26 ]
  tail call void @llvm.memcpy.p0.p0.i64(ptr noundef nonnull align 1 dereferenceable(1) %.0.i.i, ptr noundef nonnull align 1 dereferenceable(1) %0, i64 %11, i1 false)
  %.phi.trans.insert = getelementptr inbounds i8, ptr %.0.i.i, i64 8
  %.pre = load i32, ptr %.phi.trans.insert, align 8
  br label %36

36:                                               ; preds = %zend_ast_realloc.exit, %2
  %37 = phi i32 [ %.pre, %zend_ast_realloc.exit ], [ %4, %2 ]
  %.0 = phi ptr [ %.0.i.i, %zend_ast_realloc.exit ], [ %0, %2 ]
  %38 = getelementptr inbounds i8, ptr %.0, i64 16
  %39 = getelementptr inbounds i8, ptr %.0, i64 8
  %40 = add i32 %37, 1
  store i32 %40, ptr %39, align 8
  %41 = zext i32 %37 to i64
  %42 = getelementptr inbounds [1 x ptr], ptr %38, i64 0, i64 %41
  store ptr %1, ptr %42, align 8
  ret ptr %.0
}